; Function Attrs: mustprogress uwtable
define void @_ZN6casadi16DeserializerBase21blind_unpack_functionEv(ptr dead_on_unwind noalias nonnull writable sret(%"class.casadi::Function") align 8 %0, ptr nocapture noundef nonnull readonly align 8 dereferenceable(16) %1) local_unnamed_addr #3 align 2 personality ptr @__gxx_personality_v0 {
  tail call void @_ZN6casadi8FunctionC1Ev(ptr noundef nonnull align 8 dereferenceable(8) %0)
  %3 = invoke noundef nonnull align 8 dereferenceable(41) ptr @_ZN6casadi16DeserializerBase12deserializerEv(ptr noundef nonnull align 8 dereferenceable(16) %1)
          to label %4 unwind label %5

4:                                                ; preds = %2
  invoke void @_ZN6casadi19DeserializingStream6unpackERNS_8FunctionE(ptr noundef nonnull align 8 dereferenceable(41) %3, ptr noundef nonnull align 8 dereferenceable(8) %0)
          to label %7 unwind label %5

5:                                                ; preds = %4, %2
  %6 = landingpad { ptr, i32 }
          cleanup
  tail call void @_ZN6casadi8FunctionD1Ev(ptr noundef nonnull align 8 dereferenceable(8) %0) #21
  resume { ptr, i32 } %6

7:                                                ; preds = %4
  ret void
}